target datalayout = "e-m:e-p270:32:32-p271:32:32-p272:64:64-i64:64-i128:128-f80:128-n8:16:32:64-S128"
target triple = "x86_64-pc-linux-gnu"

; Function Attrs: inlinehint nounwind uwtable
define internal i32 @Abc_Var2Lit(i32 noundef %0, i32 noundef %1) #2 {
  %3 = alloca i32, align 4
  %4 = alloca i32, align 4
  store i32 %0, ptr %3, align 4, !tbaa !10
  store i32 %1, ptr %4, align 4, !tbaa !10
  %5 = load i32, ptr %3, align 4, !tbaa !10
  %6 = load i32, ptr %3, align 4, !tbaa !10
  %7 = add nsw i32 %5, %6
  %8 = load i32, ptr %4, align 4, !tbaa !10
  %9 = add nsw i32 %7, %8
  ret i32 %9
}

; Function Attrs: inlinehint nounwind uwtable
define internal i32 @Abc_CostCubes(i64 noundef %0) #2 {
  %2 = alloca i64, align 8
  store i64 %0, ptr %2, align 8, !tbaa !3
  %3 = load i64, ptr %2, align 8, !tbaa !3
  %4 = lshr i64 %3, 32
  %5 = trunc i64 %4 to i32
  ret i32 %5
}

; Function Attrs: inlinehint nounwind uwtable
define internal void @Abc_TtNot(ptr noundef %0, i32 noundef %1) #2 {
  %3 = alloca ptr, align 8
  %4 = alloca i32, align 4
  %5 = alloca i32, align 4
  store ptr %0, ptr %3, align 8, !tbaa !7
  store i32 %1, ptr %4, align 4, !tbaa !10
  call void @llvm.lifetime.start.p0(i64 4, ptr %5) #9
  store i32 0, ptr %5, align 4, !tbaa !10
  br label %6

6:                                                ; preds = %21, %2
  %7 = load i32, ptr %5, align 4, !tbaa !10
  %8 = load i32, ptr %4, align 4, !tbaa !10
  %9 = icmp slt i32 %7, %8
  br i1 %9, label %10, label %24

10:                                               ; preds = %6
  %11 = load ptr, ptr %3, align 8, !tbaa !7
  %12 = load i32, ptr %5, align 4, !tbaa !10
  %13 = sext i32 %12 to i64
  %14 = getelementptr inbounds i64, ptr %11, i64 %13
  %15 = load i64, ptr %14, align 8, !tbaa !3
  %16 = xor i64 %15, -1
  %17 = load ptr, ptr %3, align 8, !tbaa !7
  %18 = load i32, ptr %5, align 4, !tbaa !10
  %19 = sext i32 %18 to i64
  %20 = getelementptr inbounds i64, ptr %17, i64 %19
  store i64 %16, ptr %20, align 8, !tbaa !3
  br label %21

21:                                               ; preds = %10
  %22 = load i32, ptr %5, align 4, !tbaa !10
  %23 = add nsw i32 %22, 1
  store i32 %23, ptr %5, align 4, !tbaa !10
  br label %6, !llvm.loop !42

24:                                               ; preds = %6
  call void @llvm.lifetime.end.p0(i64 4, ptr %5) #9
  ret void
}

; Function Attrs: inlinehint nounwind uwtable
define internal i32 @Abc_TtWordNum(i32 noundef %0) #2 {
  %2 = alloca i32, align 4
  store i32 %0, ptr %2, align 4, !tbaa !10
  %3 = load i32, ptr %2, align 4, !tbaa !10
  %4 = icmp sle i32 %3, 6
  br i1 %4, label %5, label %6

5:                                                ; preds = %1
  br label %10

6:                                                ; preds = %1
  %7 = load i32, ptr %2, align 4, !tbaa !10
  %8 = sub nsw i32 %7, 6
  %9 = shl i32 1, %8
  br label %10

10:                                               ; preds = %6, %5
  %11 = phi i32 [ 1, %5 ], [ %9, %6 ]
  ret i32 %11
}

; Function Attrs: inlinehint nounwind uwtable
define internal i64 @Abc_Cube2Cost(i32 noundef %0) #2 {
  %2 = alloca i32, align 4
  store i32 %0, ptr %2, align 4, !tbaa !10
  %3 = load i32, ptr %2, align 4, !tbaa !10
  %4 = sext i32 %3 to i64
  %5 = shl i64 %4, 32
  ret i64 %5
}

; Function Attrs: nounwind uwtable
define i32 @Abc_IsopCnf(ptr noundef %0, i32 noundef %1, i32 noundef %2, ptr noundef %3) #0 {
  %5 = alloca i32, align 4
  %6 = alloca ptr, align 8
  %7 = alloca i32, align 4
  %8 = alloca i32, align 4
  %9 = alloca ptr, align 8
  %10 = alloca [1024 x i64], align 16
  %11 = alloca i64, align 8
  %12 = alloca i64, align 8
  %13 = alloca i64, align 8
  %14 = alloca i32, align 4
  %15 = alloca i32, align 4
  %16 = alloca i32, align 4
  %17 = alloca i32, align 4
  store ptr %0, ptr %6, align 8, !tbaa !7
  store i32 %1, ptr %7, align 4, !tbaa !10
  store i32 %2, ptr %8, align 4, !tbaa !10
  store ptr %3, ptr %9, align 8, !tbaa !12
  call void @llvm.lifetime.start.p0(i64 8192, ptr %10) #9
  call void @llvm.lifetime.start.p0(i64 8, ptr %11) #9
  call void @llvm.lifetime.start.p0(i64 8, ptr %12) #9
  call void @llvm.lifetime.start.p0(i64 8, ptr %13) #9
  %18 = load i32, ptr %8, align 4, !tbaa !10
  %19 = call i64 @Abc_Cube2Cost(i32 noundef %18)
  store i64 %19, ptr %13, align 8, !tbaa !3
  call void @llvm.lifetime.start.p0(i64 4, ptr %14) #9
  call void @llvm.lifetime.start.p0(i64 4, ptr %15) #9
  call void @llvm.lifetime.start.p0(i64 4, ptr %16) #9
  %20 = load i32, ptr %7, align 4, !tbaa !10
  %21 = icmp sgt i32 %20, 6
  br i1 %21, label %22, label %33

22:                                               ; preds = %4
  %23 = load i32, ptr %7, align 4, !tbaa !10
  %24 = sext i32 %23 to i64
  %25 = getelementptr inbounds [17 x ptr], ptr @s_pFuncIsopCover, i64 0, i64 %24
  %26 = load ptr, ptr %25, align 8, !tbaa !19
  %27 = load ptr, ptr %6, align 8, !tbaa !7
  %28 = load ptr, ptr %6, align 8, !tbaa !7
  %29 = getelementptr inbounds [1024 x i64], ptr %10, i64 0, i64 0
  %30 = load i64, ptr %13, align 8, !tbaa !3
  %31 = load ptr, ptr %9, align 8, !tbaa !12
  %32 = call i64 %26(ptr noundef %27, ptr noundef %28, ptr noundef %29, i64 noundef %30, ptr noundef %31)
  store i64 %32, ptr %11, align 8, !tbaa !3
  br label %43

33:                                               ; preds = %4
  %34 = load ptr, ptr %6, align 8, !tbaa !7
  %35 = load i64, ptr %34, align 8, !tbaa !3
  %36 = load ptr, ptr %6, align 8, !tbaa !7
  %37 = load i64, ptr %36, align 8, !tbaa !3
  %38 = getelementptr inbounds [1024 x i64], ptr %10, i64 0, i64 0
  %39 = load i32, ptr %7, align 4, !tbaa !10
  %40 = load i64, ptr %13, align 8, !tbaa !3
  %41 = load ptr, ptr %9, align 8, !tbaa !12
  %42 = call i64 @Abc_Isop6Cover(i64 noundef %35, i64 noundef %37, ptr noundef %38, i32 noundef %39, i64 noundef %40, ptr noundef %41)
  store i64 %42, ptr %11, align 8, !tbaa !3
  br label %43

43:                                               ; preds = %33, %22
  %44 = load i64, ptr %11, align 8, !tbaa !3
  %45 = load i64, ptr %13, align 8, !tbaa !3
  %46 = icmp uge i64 %44, %45
  br i1 %46, label %47, label %50

47:                                               ; preds = %43
  %48 = load i64, ptr %13, align 8, !tbaa !3
  %49 = trunc i64 %48 to i32
  store i32 %49, ptr %5, align 4
  store i32 1, ptr %17, align 4
  br label %159

50:                                               ; preds = %43
  %51 = load ptr, ptr %6, align 8, !tbaa !7
  %52 = load i32, ptr %7, align 4, !tbaa !10
  %53 = call i32 @Abc_TtWordNum(i32 noundef %52)
  call void @Abc_TtNot(ptr noundef %51, i32 noundef %53)
  %54 = load i32, ptr %7, align 4, !tbaa !10
  %55 = icmp sgt i32 %54, 6
  br i1 %55, label %56, label %77

56:                                               ; preds = %50
  %57 = load i32, ptr %7, align 4, !tbaa !10
  %58 = sext i32 %57 to i64
  %59 = getelementptr inbounds [17 x ptr], ptr @s_pFuncIsopCover, i64 0, i64 %58
  %60 = load ptr, ptr %59, align 8, !tbaa !19
  %61 = load ptr, ptr %6, align 8, !tbaa !7
  %62 = load ptr, ptr %6, align 8, !tbaa !7
  %63 = getelementptr inbounds [1024 x i64], ptr %10, i64 0, i64 0
  %64 = load i64, ptr %13, align 8, !tbaa !3
  %65 = load ptr, ptr %9, align 8, !tbaa !12
  %66 = icmp ne ptr %65, null
  br i1 %66, label %67, label %73

67:                                               ; preds = %56
  %68 = load ptr, ptr %9, align 8, !tbaa !12
  %69 = load i64, ptr %11, align 8, !tbaa !3
  %70 = call i32 @Abc_CostCubes(i64 noundef %69)
  %71 = sext i32 %70 to i64
  %72 = getelementptr inbounds i32, ptr %68, i64 %71
  br label %74

73:                                               ; preds = %56
  br label %74

74:                                               ; preds = %73, %67
  %75 = phi ptr [ %72, %67 ], [ null, %73 ]
  %76 = call i64 %60(ptr noundef %61, ptr noundef %62, ptr noundef %63, i64 noundef %64, ptr noundef %75)
  store i64 %76, ptr %12, align 8, !tbaa !3
  br label %97

77:                                               ; preds = %50
  %78 = load ptr, ptr %6, align 8, !tbaa !7
  %79 = load i64, ptr %78, align 8, !tbaa !3
  %80 = load ptr, ptr %6, align 8, !tbaa !7
  %81 = load i64, ptr %80, align 8, !tbaa !3
  %82 = getelementptr inbounds [1024 x i64], ptr %10, i64 0, i64 0
  %83 = load i32, ptr %7, align 4, !tbaa !10
  %84 = load i64, ptr %13, align 8, !tbaa !3
  %85 = load ptr, ptr %9, align 8, !tbaa !12
  %86 = icmp ne ptr %85, null
  br i1 %86, label %87, label %93

87:                                               ; preds = %77
  %88 = load ptr, ptr %9, align 8, !tbaa !12
  %89 = load i64, ptr %11, align 8, !tbaa !3
  %90 = call i32 @Abc_CostCubes(i64 noundef %89)
  %91 = sext i32 %90 to i64
  %92 = getelementptr inbounds i32, ptr %88, i64 %91
  br label %94

93:                                               ; preds = %77
  br label %94

94:                                               ; preds = %93, %87
  %95 = phi ptr [ %92, %87 ], [ null, %93 ]
  %96 = call i64 @Abc_Isop6Cover(i64 noundef %79, i64 noundef %81, ptr noundef %82, i32 noundef %83, i64 noundef %84, ptr noundef %95)
  store i64 %96, ptr %12, align 8, !tbaa !3
  br label %97

97:                                               ; preds = %94, %74
  %98 = load ptr, ptr %6, align 8, !tbaa !7
  %99 = load i32, ptr %7, align 4, !tbaa !10
  %100 = call i32 @Abc_TtWordNum(i32 noundef %99)
  call void @Abc_TtNot(ptr noundef %98, i32 noundef %100)
  %101 = load i64, ptr %11, align 8, !tbaa !3
  %102 = load i64, ptr %12, align 8, !tbaa !3
  %103 = add i64 %101, %102
  %104 = load i64, ptr %13, align 8, !tbaa !3
  %105 = icmp uge i64 %103, %104
  br i1 %105, label %106, label %109

106:                                              ; preds = %97
  %107 = load i64, ptr %13, align 8, !tbaa !3
  %108 = trunc i64 %107 to i32
  store i32 %108, ptr %5, align 4
  store i32 1, ptr %17, align 4
  br label %159

109:                                              ; preds = %97
  %110 = load i64, ptr %11, align 8, !tbaa !3
  %111 = call i32 @Abc_CostCubes(i64 noundef %110)
  store i32 %111, ptr %15, align 4, !tbaa !10
  %112 = load i64, ptr %12, align 8, !tbaa !3
  %113 = call i32 @Abc_CostCubes(i64 noundef %112)
  store i32 %113, ptr %16, align 4, !tbaa !10
  %114 = load ptr, ptr %9, align 8, !tbaa !12
  %115 = icmp ne ptr %114, null
  br i1 %115, label %116, label %155

116:                                              ; preds = %109
  store i32 0, ptr %14, align 4, !tbaa !10
  br label %117

117:                                              ; preds = %131, %116
  %118 = load i32, ptr %14, align 4, !tbaa !10
  %119 = load i32, ptr %15, align 4, !tbaa !10
  %120 = icmp slt i32 %118, %119
  br i1 %120, label %121, label %134

121:                                              ; preds = %117
  %122 = load i32, ptr %7, align 4, !tbaa !10
  %123 = call i32 @Abc_Var2Lit(i32 noundef %122, i32 noundef 0)
  %124 = shl i32 1, %123
  %125 = load ptr, ptr %9, align 8, !tbaa !12
  %126 = load i32, ptr %14, align 4, !tbaa !10
  %127 = sext i32 %126 to i64
  %128 = getelementptr inbounds i32, ptr %125, i64 %127
  %129 = load i32, ptr %128, align 4, !tbaa !10
  %130 = or i32 %129, %124
  store i32 %130, ptr %128, align 4, !tbaa !10
  br label %131

131:                                              ; preds = %121
  %132 = load i32, ptr %14, align 4, !tbaa !10
  %133 = add nsw i32 %132, 1
  store i32 %133, ptr %14, align 4, !tbaa !10
  br label %117, !llvm.loop !44

134:                                              ; preds = %117
  store i32 0, ptr %14, align 4, !tbaa !10
  br label %135

135:                                              ; preds = %151, %134
  %136 = load i32, ptr %14, align 4, !tbaa !10
  %137 = load i32, ptr %16, align 4, !tbaa !10
  %138 = icmp slt i32 %136, %137
  br i1 %138, label %139, label %154

139:                                              ; preds = %135
  %140 = load i32, ptr %7, align 4, !tbaa !10
  %141 = call i32 @Abc_Var2Lit(i32 noundef %140, i32 noundef 1)
  %142 = shl i32 1, %141
  %143 = load ptr, ptr %9, align 8, !tbaa !12
  %144 = load i32, ptr %14, align 4, !tbaa !10
  %145 = load i32, ptr %15, align 4, !tbaa !10
  %146 = add nsw i32 %144, %145
  %147 = sext i32 %146 to i64
  %148 = getelementptr inbounds i32, ptr %143, i64 %147
  %149 = load i32, ptr %148, align 4, !tbaa !10
  %150 = or i32 %149, %142
  store i32 %150, ptr %148, align 4, !tbaa !10
  br label %151

151:                                              ; preds = %139
  %152 = load i32, ptr %14, align 4, !tbaa !10
  %153 = add nsw i32 %152, 1
  store i32 %153, ptr %14, align 4, !tbaa !10
  br label %135, !llvm.loop !45

154:                                              ; preds = %135
  br label %155

155:                                              ; preds = %154, %109
  %156 = load i32, ptr %15, align 4, !tbaa !10
  %157 = load i32, ptr %16, align 4, !tbaa !10
  %158 = add nsw i32 %156, %157
  store i32 %158, ptr %5, align 4
  store i32 1, ptr %17, align 4
  br label %159

159:                                              ; preds = %155, %106, %47
  call void @llvm.lifetime.end.p0(i64 4, ptr %16) #9
  call void @llvm.lifetime.end.p0(i64 4, ptr %15) #9
  call void @llvm.lifetime.end.p0(i64 4, ptr %14) #9
  call void @llvm.lifetime.end.p0(i64 8, ptr %13) #9
  call void @llvm.lifetime.end.p0(i64 8, ptr %12) #9
  call void @llvm.lifetime.end.p0(i64 8, ptr %11) #9
  call void @llvm.lifetime.end.p0(i64 8192, ptr %10) #9
  %160 = load i32, ptr %5, align 4
  ret i32 %160
}