; Function Attrs: nounwind uwtable
define i32 @Abc_IsopCnf(ptr noundef %0, i32 noundef %1, i32 noundef %2, ptr noundef %3) local_unnamed_addr #2 {
  %5 = alloca [1024 x i64], align 16
  call void @llvm.lifetime.start.p0(i64 8192, ptr nonnull %5) #20
  %6 = sext i32 %2 to i64
  %7 = shl nsw i64 %6, 32
  %8 = icmp sgt i32 %1, 6
  br i1 %8, label %9, label %14

9:                                                ; preds = %4
  %10 = zext nneg i32 %1 to i64
  %11 = getelementptr inbounds nuw [17 x ptr], ptr @s_pFuncIsopCover, i64 0, i64 %10
  %12 = load ptr, ptr %11, align 8, !tbaa !17
  %13 = call i64 %12(ptr noundef %0, ptr noundef %0, ptr noundef nonnull %5, i64 noundef %7, ptr noundef %3) #20
  br label %17

14:                                               ; preds = %4
  %15 = load i64, ptr %0, align 8, !tbaa !3
  %16 = call i64 @Abc_Isop6Cover(i64 noundef %15, i64 noundef %15, ptr noundef nonnull %5, i32 noundef %1, i64 noundef %7, ptr noundef %3)
  br label %17

17:                                               ; preds = %14, %9
  %.056 = phi i64 [ %13, %9 ], [ %16, %14 ]
  %.not = icmp ult i64 %.056, %7
  br i1 %.not, label %18, label %66

18:                                               ; preds = %17
  %19 = icmp slt i32 %1, 7
  %20 = add nsw i32 %1, -6
  %21 = shl nuw i32 1, %20
  %22 = select i1 %19, i32 1, i32 %21
  %23 = icmp sgt i32 %22, 0
  br i1 %23, label %.lr.ph.preheader.i, label %Abc_TtNot.exit

.lr.ph.preheader.i:                               ; preds = %18
  %wide.trip.count.i = zext nneg i32 %22 to i64
  br label %.lr.ph.i

.lr.ph.i:                                         ; preds = %.lr.ph.i, %.lr.ph.preheader.i
  %indvars.iv.i = phi i64 [ 0, %.lr.ph.preheader.i ], [ %indvars.iv.next.i, %.lr.ph.i ]
  %24 = getelementptr inbounds nuw i64, ptr %0, i64 %indvars.iv.i
  %25 = load i64, ptr %24, align 8, !tbaa !3
  %26 = xor i64 %25, -1
  store i64 %26, ptr %24, align 8, !tbaa !3
  %indvars.iv.next.i = add nuw nsw i64 %indvars.iv.i, 1
  %exitcond.not.i = icmp eq i64 %indvars.iv.next.i, %wide.trip.count.i
  br i1 %exitcond.not.i, label %Abc_TtNot.exit, label %.lr.ph.i, !llvm.loop !36

Abc_TtNot.exit:                                   ; preds = %.lr.ph.i, %18
  br i1 %8, label %27, label %35

27:                                               ; preds = %Abc_TtNot.exit
  %28 = zext nneg i32 %1 to i64
  %29 = getelementptr inbounds nuw [17 x ptr], ptr @s_pFuncIsopCover, i64 0, i64 %28
  %30 = load ptr, ptr %29, align 8, !tbaa !17
  %.not68 = icmp eq ptr %3, null
  %31 = ashr i64 %.056, 32
  %32 = getelementptr inbounds i32, ptr %3, i64 %31
  %33 = select i1 %.not68, ptr null, ptr %32
  %34 = call i64 %30(ptr noundef %0, ptr noundef %0, ptr noundef nonnull %5, i64 noundef %7, ptr noundef %33) #20
  br label %41

35:                                               ; preds = %Abc_TtNot.exit
  %36 = load i64, ptr %0, align 8, !tbaa !3
  %.not67 = icmp eq ptr %3, null
  %37 = ashr i64 %.056, 32
  %38 = getelementptr inbounds i32, ptr %3, i64 %37
  %39 = select i1 %.not67, ptr null, ptr %38
  %40 = call i64 @Abc_Isop6Cover(i64 noundef %36, i64 noundef %36, ptr noundef nonnull %5, i32 noundef %1, i64 noundef %7, ptr noundef %39)
  br label %41

41:                                               ; preds = %35, %27
  %.058 = phi i64 [ %34, %27 ], [ %40, %35 ]
  br i1 %23, label %.lr.ph.preheader.i71, label %Abc_TtNot.exit77

.lr.ph.preheader.i71:                             ; preds = %41
  %wide.trip.count.i72 = zext nneg i32 %22 to i64
  br label %.lr.ph.i73

.lr.ph.i73:                                       ; preds = %.lr.ph.i73, %.lr.ph.preheader.i71
  %indvars.iv.i74 = phi i64 [ 0, %.lr.ph.preheader.i71 ], [ %indvars.iv.next.i75, %.lr.ph.i73 ]
  %42 = getelementptr inbounds nuw i64, ptr %0, i64 %indvars.iv.i74
  %43 = load i64, ptr %42, align 8, !tbaa !3
  %44 = xor i64 %43, -1
  store i64 %44, ptr %42, align 8, !tbaa !3
  %indvars.iv.next.i75 = add nuw nsw i64 %indvars.iv.i74, 1
  %exitcond.not.i76 = icmp eq i64 %indvars.iv.next.i75, %wide.trip.count.i72
  br i1 %exitcond.not.i76, label %Abc_TtNot.exit77, label %.lr.ph.i73, !llvm.loop !36

Abc_TtNot.exit77:                                 ; preds = %.lr.ph.i73, %41
  %45 = add i64 %.058, %.056
  %.not69 = icmp ult i64 %45, %7
  br i1 %.not69, label %46, label %66

46:                                               ; preds = %Abc_TtNot.exit77
  %47 = lshr i64 %.056, 32
  %48 = trunc nuw i64 %47 to i32
  %49 = lshr i64 %.058, 32
  %50 = trunc nuw i64 %49 to i32
  %.not70 = icmp eq ptr %3, null
  br i1 %.not70, label %.loopexit, label %.preheader78

.preheader78:                                     ; preds = %46
  %51 = icmp sgt i32 %48, 0
  br i1 %51, label %.lr.ph, label %.preheader

.lr.ph:                                           ; preds = %.preheader78
  %52 = shl nsw i32 %1, 1
  %53 = shl nuw i32 1, %52
  br label %58

.preheader:                                       ; preds = %58, %.preheader78
  %54 = icmp sgt i32 %50, 0
  br i1 %54, label %.lr.ph81, label %.loopexit

.lr.ph81:                                         ; preds = %.preheader
  %55 = shl nsw i32 %1, 1
  %56 = shl nuw i32 2, %55
  %57 = ashr i64 %.056, 32
  %invariant.gep = getelementptr i32, ptr %3, i64 %57
  br label %62

58:                                               ; preds = %.lr.ph, %58
  %indvars.iv = phi i64 [ 0, %.lr.ph ], [ %indvars.iv.next, %58 ]
  %59 = getelementptr inbounds nuw i32, ptr %3, i64 %indvars.iv
  %60 = load i32, ptr %59, align 4, !tbaa !7
  %61 = or i32 %60, %53
  store i32 %61, ptr %59, align 4, !tbaa !7
  %indvars.iv.next = add nuw nsw i64 %indvars.iv, 1
  %exitcond.not = icmp eq i64 %indvars.iv.next, %47
  br i1 %exitcond.not, label %.preheader, label %58, !llvm.loop !38

62:                                               ; preds = %.lr.ph81, %62
  %indvars.iv83 = phi i64 [ 0, %.lr.ph81 ], [ %indvars.iv.next84, %62 ]
  %gep = getelementptr i32, ptr %invariant.gep, i64 %indvars.iv83
  %63 = load i32, ptr %gep, align 4, !tbaa !7
  %64 = or i32 %63, %56
  store i32 %64, ptr %gep, align 4, !tbaa !7
  %indvars.iv.next84 = add nuw nsw i64 %indvars.iv83, 1
  %exitcond87.not = icmp eq i64 %indvars.iv.next84, %49
  br i1 %exitcond87.not, label %.loopexit, label %62, !llvm.loop !39

.loopexit:                                        ; preds = %62, %.preheader, %46
  %65 = add nsw i32 %50, %48
  br label %66

66:                                               ; preds = %Abc_TtNot.exit77, %17, %.loopexit
  %.0 = phi i32 [ %65, %.loopexit ], [ 0, %17 ], [ 0, %Abc_TtNot.exit77 ]
  call void @llvm.lifetime.end.p0(i64 8192, ptr nonnull %5) #20
  ret i32 %.0
}